; Function Attrs: nounwind uwtable
define dso_local void @sema_context_init(ptr nocapture noundef writeonly %0, ptr noundef %1) local_unnamed_addr #0 {
  %3 = load ptr, ptr getelementptr inbounds (%struct.GlobalContext, ptr @global_context, i64 0, i32 13), align 8
  %.not.i = icmp eq ptr %3, null
  br i1 %.not.i, label %.critedge.i, label %4

4:                                                ; preds = %2
  %5 = getelementptr inbounds i8, ptr %3, i64 -8
  %6 = load i32, ptr %5, align 4
  %7 = icmp eq i32 %6, 0
  br i1 %7, label %.critedge.i, label %11

.critedge.i:                                      ; preds = %4, %2
  %8 = tail call ptr @calloc_arena(i64 noundef 520) #10
  %9 = getelementptr inbounds i8, ptr %8, i64 4
  store i32 64, ptr %9, align 4
  %10 = getelementptr inbounds i8, ptr %8, i64 8
  br label %global_context_acquire_locals_list.exit

11:                                               ; preds = %4
  %12 = add i32 %6, -1
  %13 = zext i32 %12 to i64
  %14 = getelementptr inbounds ptr, ptr %3, i64 %13
  %15 = load ptr, ptr %14, align 8
  store i32 %12, ptr %5, align 4
  %.not.i.i = icmp eq ptr %15, null
  br i1 %.not.i.i, label %global_context_acquire_locals_list.exit, label %16

16:                                               ; preds = %11
  %17 = getelementptr inbounds i8, ptr %15, i64 -8
  store i32 0, ptr %17, align 4
  br label %global_context_acquire_locals_list.exit

global_context_acquire_locals_list.exit:          ; preds = %.critedge.i, %11, %16
  %.014.i = phi ptr [ %10, %.critedge.i ], [ null, %11 ], [ %15, %16 ]
  %18 = load ptr, ptr getelementptr inbounds (%struct.GlobalContext, ptr @global_context, i64 0, i32 13), align 8
  %.not.i5 = icmp eq ptr %18, null
  br i1 %.not.i5, label %.critedge.i8, label %19

19:                                               ; preds = %global_context_acquire_locals_list.exit
  %20 = getelementptr inbounds i8, ptr %18, i64 -8
  %21 = load i32, ptr %20, align 4
  %22 = icmp eq i32 %21, 0
  br i1 %22, label %.critedge.i8, label %26

.critedge.i8:                                     ; preds = %19, %global_context_acquire_locals_list.exit
  %23 = tail call ptr @calloc_arena(i64 noundef 520) #10
  %24 = getelementptr inbounds i8, ptr %23, i64 4
  store i32 64, ptr %24, align 4
  %25 = getelementptr inbounds i8, ptr %23, i64 8
  br label %global_context_acquire_locals_list.exit9

26:                                               ; preds = %19
  %27 = add i32 %21, -1
  %28 = zext i32 %27 to i64
  %29 = getelementptr inbounds ptr, ptr %18, i64 %28
  %30 = load ptr, ptr %29, align 8
  store i32 %27, ptr %20, align 4
  %.not.i.i6 = icmp eq ptr %30, null
  br i1 %.not.i.i6, label %global_context_acquire_locals_list.exit9, label %31

31:                                               ; preds = %26
  %32 = getelementptr inbounds i8, ptr %30, i64 -8
  store i32 0, ptr %32, align 4
  br label %global_context_acquire_locals_list.exit9

global_context_acquire_locals_list.exit9:         ; preds = %.critedge.i8, %26, %31
  %.014.i7 = phi ptr [ %25, %.critedge.i8 ], [ null, %26 ], [ %30, %31 ]
  store ptr null, ptr %0, align 8
  %.sroa.2.0..sroa_idx = getelementptr inbounds i8, ptr %0, i64 8
  store ptr %1, ptr %.sroa.2.0..sroa_idx, align 8
  %.sroa.3.0..sroa_idx = getelementptr inbounds i8, ptr %0, i64 16
  store ptr %1, ptr %.sroa.3.0..sroa_idx, align 8
  %.sroa.4.0..sroa_idx = getelementptr inbounds i8, ptr %0, i64 24
  tail call void @llvm.memset.p0.i64(ptr noundef nonnull align 8 dereferenceable(192) %.sroa.4.0..sroa_idx, i8 0, i64 192, i1 false)
  %.sroa.41.0..sroa_idx = getelementptr inbounds i8, ptr %0, i64 216
  store ptr %.014.i, ptr %.sroa.41.0..sroa_idx, align 8
  %.sroa.5.0..sroa_idx = getelementptr inbounds i8, ptr %0, i64 224
  tail call void @llvm.memset.p0.i64(ptr noundef nonnull align 8 dereferenceable(16) %.sroa.5.0..sroa_idx, i8 0, i64 16, i1 false)
  %.sroa.52.0..sroa_idx = getelementptr inbounds i8, ptr %0, i64 240
  store ptr %.014.i7, ptr %.sroa.52.0..sroa_idx, align 8
  %.sroa.6.0..sroa_idx = getelementptr inbounds i8, ptr %0, i64 248
  tail call void @llvm.memset.p0.i64(ptr noundef nonnull align 8 dereferenceable(56) %.sroa.6.0..sroa_idx, i8 0, i64 56, i1 false)
  ret void
}